target datalayout = "e-m:e-p270:32:32-p271:32:32-p272:64:64-i64:64-i128:128-f80:128-n8:16:32:64-S128"
target triple = "x86_64-pc-linux-gnu"

%"class.sat::literal" = type { i32 }
%"class.pb::pbc" = type <{ %"class.pb::constraint", i32, i32, i32, [0 x %"struct.std::pair"], [4 x i8] }>
%"class.pb::constraint" = type { ptr, i32, i8, %"class.sat::literal", %"class.sat::literal", i32, i32, i32, i64, i8, i32, i8, i32 }
%"struct.std::pair" = type { i32, %"class.sat::literal" }

; Function Attrs: inlinehint mustprogress nounwind uwtable
define linkonce_odr hidden noundef zeroext i1 @_ZN3sateqERKNS_7literalES2_(ptr noundef nonnull align 4 dereferenceable(4) %0, ptr noundef nonnull align 4 dereferenceable(4) %1) #8 comdat {
  %3 = alloca ptr, align 8
  %4 = alloca ptr, align 8
  store ptr %0, ptr %3, align 8, !tbaa !61
  store ptr %1, ptr %4, align 8, !tbaa !61
  %5 = load ptr, ptr %3, align 8, !tbaa !61
  %6 = getelementptr inbounds nuw %"class.sat::literal", ptr %5, i32 0, i32 0
  %7 = load i32, ptr %6, align 4, !tbaa !63
  %8 = load ptr, ptr %4, align 8, !tbaa !61
  %9 = getelementptr inbounds nuw %"class.sat::literal", ptr %8, i32 0, i32 0
  %10 = load i32, ptr %9, align 4, !tbaa !63
  %11 = icmp eq i32 %7, %10
  ret i1 %11
}

; Function Attrs: mustprogress nounwind uwtable
define linkonce_odr hidden i64 @_ZNK2pb3pbcixEj(ptr noundef nonnull align 8 dereferenceable(76) %0, i32 noundef %1) #4 comdat align 2 {
  %3 = alloca %"struct.std::pair", align 4
  %4 = alloca ptr, align 8
  %5 = alloca i32, align 4
  store ptr %0, ptr %4, align 8, !tbaa !8
  store i32 %1, ptr %5, align 4, !tbaa !10
  %6 = load ptr, ptr %4, align 8
  %7 = getelementptr inbounds nuw %"class.pb::pbc", ptr %6, i32 0, i32 4
  %8 = load i32, ptr %5, align 4, !tbaa !10
  %9 = zext i32 %8 to i64
  %10 = getelementptr inbounds nuw [0 x %"struct.std::pair"], ptr %7, i64 0, i64 %9
  call void @llvm.memcpy.p0.p0.i64(ptr align 4 %3, ptr align 4 %10, i64 8, i1 false)
  %11 = load i64, ptr %3, align 4
  ret i64 %11
}

; Function Attrs: mustprogress uwtable
define hidden noundef zeroext i1 @_ZNK2pb3pbc11is_watchingEN3sat7literalE(ptr noundef nonnull align 8 dereferenceable(76) %0, i32 %1) unnamed_addr #5 align 2 {
  %3 = alloca i1, align 1
  %4 = alloca %"class.sat::literal", align 4
  %5 = alloca ptr, align 8
  %6 = alloca i32, align 4
  %7 = alloca i32, align 4
  %8 = alloca %"struct.std::pair", align 4
  %9 = getelementptr inbounds nuw %"class.sat::literal", ptr %4, i32 0, i32 0
  store i32 %1, ptr %9, align 4
  store ptr %0, ptr %5, align 8, !tbaa !8
  %10 = load ptr, ptr %5, align 8
  call void @llvm.lifetime.start.p0(i64 4, ptr %6) #3
  store i32 0, ptr %6, align 4, !tbaa !10
  br label %11

11:                                               ; preds = %24, %2
  %12 = load i32, ptr %6, align 4, !tbaa !10
  %13 = getelementptr inbounds nuw %"class.pb::pbc", ptr %10, i32 0, i32 2
  %14 = load i32, ptr %13, align 4, !tbaa !24
  %15 = icmp ult i32 %12, %14
  br i1 %15, label %17, label %16

16:                                               ; preds = %11
  store i32 2, ptr %7, align 4
  br label %27

17:                                               ; preds = %11
  call void @llvm.lifetime.start.p0(i64 8, ptr %8) #3
  %18 = load i32, ptr %6, align 4, !tbaa !10
  %19 = call i64 @_ZNK2pb3pbcixEj(ptr noundef nonnull align 8 dereferenceable(76) %10, i32 noundef %18)
  store i64 %19, ptr %8, align 4
  %20 = getelementptr inbounds nuw %"struct.std::pair", ptr %8, i32 0, i32 1
  %21 = call noundef zeroext i1 @_ZN3sateqERKNS_7literalES2_(ptr noundef nonnull align 4 dereferenceable(4) %20, ptr noundef nonnull align 4 dereferenceable(4) %4)
  call void @llvm.lifetime.end.p0(i64 8, ptr %8) #3
  br i1 %21, label %22, label %23

22:                                               ; preds = %17
  store i1 true, ptr %3, align 1
  store i32 1, ptr %7, align 4
  br label %27

23:                                               ; preds = %17
  br label %24

24:                                               ; preds = %23
  %25 = load i32, ptr %6, align 4, !tbaa !10
  %26 = add i32 %25, 1
  store i32 %26, ptr %6, align 4, !tbaa !10
  br label %11, !llvm.loop !64

27:                                               ; preds = %22, %16
  call void @llvm.lifetime.end.p0(i64 4, ptr %6) #3
  %28 = load i32, ptr %7, align 4
  switch i32 %28, label %32 [
    i32 2, label %29
    i32 1, label %30
  ]

29:                                               ; preds = %27
  store i1 false, ptr %3, align 1
  br label %30

30:                                               ; preds = %29, %27
  %31 = load i1, ptr %3, align 1
  ret i1 %31

32:                                               ; preds = %27
  unreachable
}