; Function Attrs: mustprogress nofree norecurse nosync nounwind willreturn memory(argmem: read) uwtable
define hidden noundef zeroext i1 @_ZNK2pb3pbc11is_watchingEN3sat7literalE(ptr noundef nonnull readonly align 8 captures(none) dereferenceable(76) %0, i32 %1) unnamed_addr #9 align 2 {
  %3 = getelementptr inbounds nuw i8, ptr %0, i64 76
  %4 = getelementptr inbounds nuw i8, ptr %0, i64 68
  %5 = load i32, ptr %4, align 4, !tbaa !30
  %.not8.not = icmp eq i32 %5, 0
  br i1 %.not8.not, label %._crit_edge, label %.lr.ph.preheader

.lr.ph.preheader:                                 ; preds = %2
  %wide.trip.count = zext i32 %5 to i64
  br label %.lr.ph

.lr.ph:                                           ; preds = %.lr.ph, %.lr.ph.preheader
  %indvars.iv = phi i64 [ 0, %.lr.ph.preheader ], [ %indvars.iv.next, %.lr.ph ]
  %6 = getelementptr inbounds nuw [0 x %"struct.std::pair"], ptr %3, i64 0, i64 %indvars.iv
  %.sroa.0.0.copyload.i = load i64, ptr %6, align 4
  %.sroa.3.0.extract.shift = lshr i64 %.sroa.0.0.copyload.i, 32
  %.sroa.3.0.extract.trunc = trunc nuw i64 %.sroa.3.0.extract.shift to i32
  %7 = icmp eq i32 %1, %.sroa.3.0.extract.trunc
  %indvars.iv.next = add nuw nsw i64 %indvars.iv, 1
  %exitcond.not = icmp eq i64 %indvars.iv.next, %wide.trip.count
  %or.cond = select i1 %7, i1 true, i1 %exitcond.not
  br i1 %or.cond, label %._crit_edge, label %.lr.ph, !llvm.loop !48

._crit_edge:                                      ; preds = %.lr.ph, %2
  %.not.lcssa = phi i1 [ false, %2 ], [ %7, %.lr.ph ]
  ret i1 %.not.lcssa
}